target datalayout = "e-m:e-p270:32:32-p271:32:32-p272:64:64-i64:64-i128:128-f80:128-n8:16:32:64-S128"
target triple = "x86_64-pc-linux-gnu"

%struct.FunctionCallInfoBaseData = type { ptr, ptr, ptr, i32, i8, i16, [0 x %struct.NullableDatum] }
%struct.NullableDatum = type { i64, i8 }

@.str.1 = private unnamed_addr constant [9 x i8] c"origin.c\00", align 1
@max_replication_slots = external global i32, align 4
@.str.27 = private unnamed_addr constant [41 x i8] c"replication origin name \22%s\22 is reserved\00", align 1
@.str.28 = private unnamed_addr constant [69 x i8] c"Origin names \22%s\22, \22%s\22, and names starting with \22pg_\22 are reserved.\00", align 1
@.str.29 = private unnamed_addr constant [4 x i8] c"any\00", align 1
@.str.30 = private unnamed_addr constant [5 x i8] c"none\00", align 1
@__func__.pg_replication_origin_create = private unnamed_addr constant [29 x i8] c"pg_replication_origin_create\00", align 1
@.str.32 = private unnamed_addr constant [80 x i8] c"cannot query or manipulate replication origin when \22max_replication_slots\22 is 0\00", align 1
@__func__.replorigin_check_prerequisites = private unnamed_addr constant [31 x i8] c"replorigin_check_prerequisites\00", align 1
@.str.33 = private unnamed_addr constant [54 x i8] c"cannot manipulate replication origins during recovery\00", align 1

; Function Attrs: inlinehint nounwind uwtable
define internal i64 @ObjectIdGetDatum(i32 noundef %0) #2 {
  %2 = alloca i32, align 4
  store i32 %0, ptr %2, align 4
  %3 = load i32, ptr %2, align 4
  %4 = zext i32 %3 to i64
  ret i64 %4
}

; Function Attrs: nounwind uwtable
define internal zeroext i1 @IsReservedOriginName(ptr noundef %0) #0 {
  %2 = alloca ptr, align 8
  store ptr %0, ptr %2, align 8
  %3 = load ptr, ptr %2, align 8
  %4 = call i32 @pg_strcasecmp(ptr noundef %3, ptr noundef @.str.30)
  %5 = icmp eq i32 %4, 0
  br i1 %5, label %10, label %6

6:                                                ; preds = %1
  %7 = load ptr, ptr %2, align 8
  %8 = call i32 @pg_strcasecmp(ptr noundef %7, ptr noundef @.str.29)
  %9 = icmp eq i32 %8, 0
  br label %10

10:                                               ; preds = %6, %1
  %11 = phi i1 [ true, %1 ], [ %9, %6 ]
  ret i1 %11
}

; Function Attrs: inlinehint nounwind uwtable
define internal ptr @DatumGetPointer(i64 noundef %0) #2 {
  %2 = alloca i64, align 8
  store i64 %0, ptr %2, align 8
  %3 = load i64, ptr %2, align 8
  %4 = inttoptr i64 %3 to ptr
  ret ptr %4
}

; Function Attrs: nounwind uwtable
define internal void @replorigin_check_prerequisites(i1 noundef zeroext %0, i1 noundef zeroext %1) #0 {
  %3 = alloca i8, align 1
  %4 = alloca i8, align 1
  %5 = zext i1 %0 to i8
  store i8 %5, ptr %3, align 1
  %6 = zext i1 %1 to i8
  store i8 %6, ptr %4, align 1
  %7 = load i8, ptr %3, align 1, !range !4, !noundef !5
  %8 = trunc i8 %7 to i1
  br i1 %8, label %9, label %23

9:                                                ; preds = %2
  %10 = load i32, ptr @max_replication_slots, align 4
  %11 = icmp eq i32 %10, 0
  br i1 %11, label %12, label %23

12:                                               ; preds = %9
  br label %13

13:                                               ; preds = %12
  br i1 true, label %14, label %16

14:                                               ; preds = %13
  %15 = call zeroext i1 @errstart_cold(i32 noundef 21, ptr noundef null) #10
  br i1 %15, label %18, label %21

16:                                               ; preds = %13
  %17 = call zeroext i1 @errstart(i32 noundef 21, ptr noundef null)
  br i1 %17, label %18, label %21

18:                                               ; preds = %16, %14
  %19 = call i32 @errcode(i32 noundef 325)
  %20 = call i32 (ptr, ...) @errmsg(ptr noundef @.str.32)
  call void @errfinish(ptr noundef @.str.1, i32 noundef 194, ptr noundef @__func__.replorigin_check_prerequisites)
  br label %21

21:                                               ; preds = %18, %16, %14
  unreachable

22:                                               ; No predecessors!
  br label %23

23:                                               ; preds = %22, %9, %2
  %24 = load i8, ptr %4, align 1, !range !4, !noundef !5
  %25 = trunc i8 %24 to i1
  br i1 %25, label %39, label %26

26:                                               ; preds = %23
  %27 = call zeroext i1 @RecoveryInProgress()
  br i1 %27, label %28, label %39

28:                                               ; preds = %26
  br label %29

29:                                               ; preds = %28
  br i1 true, label %30, label %32

30:                                               ; preds = %29
  %31 = call zeroext i1 @errstart_cold(i32 noundef 21, ptr noundef null) #10
  br i1 %31, label %34, label %37

32:                                               ; preds = %29
  %33 = call zeroext i1 @errstart(i32 noundef 21, ptr noundef null)
  br i1 %33, label %34, label %37

34:                                               ; preds = %32, %30
  %35 = call i32 @errcode(i32 noundef 100663618)
  %36 = call i32 (ptr, ...) @errmsg(ptr noundef @.str.33)
  call void @errfinish(ptr noundef @.str.1, i32 noundef 199, ptr noundef @__func__.replorigin_check_prerequisites)
  br label %37

37:                                               ; preds = %34, %32, %30
  unreachable

38:                                               ; No predecessors!
  br label %39

39:                                               ; preds = %38, %26, %23
  ret void
}

; Function Attrs: nounwind uwtable
define dso_local i64 @pg_replication_origin_create(ptr noundef %0) #0 {
  %2 = alloca ptr, align 8
  %3 = alloca ptr, align 8
  %4 = alloca i16, align 2
  store ptr %0, ptr %2, align 8
  call void @llvm.lifetime.start.p0(i64 8, ptr %3) #9
  call void @llvm.lifetime.start.p0(i64 2, ptr %4) #9
  call void @replorigin_check_prerequisites(i1 noundef zeroext false, i1 noundef zeroext false)
  %5 = load ptr, ptr %2, align 8
  %6 = getelementptr inbounds nuw %struct.FunctionCallInfoBaseData, ptr %5, i32 0, i32 6
  %7 = getelementptr inbounds [0 x %struct.NullableDatum], ptr %6, i64 0, i64 0
  %8 = getelementptr inbounds nuw %struct.NullableDatum, ptr %7, i32 0, i32 0
  %9 = load i64, ptr %8, align 8
  %10 = call ptr @DatumGetPointer(i64 noundef %9)
  %11 = call ptr @text_to_cstring(ptr noundef %10)
  store ptr %11, ptr %3, align 8
  %12 = load ptr, ptr %3, align 8
  %13 = call zeroext i1 @IsReservedName(ptr noundef %12)
  br i1 %13, label %17, label %14

14:                                               ; preds = %1
  %15 = load ptr, ptr %3, align 8
  %16 = call zeroext i1 @IsReservedOriginName(ptr noundef %15)
  br i1 %16, label %17, label %31

17:                                               ; preds = %14, %1
  br label %18

18:                                               ; preds = %17
  br i1 true, label %19, label %21

19:                                               ; preds = %18
  %20 = call zeroext i1 @errstart_cold(i32 noundef 21, ptr noundef null) #10
  br i1 %20, label %23, label %28

21:                                               ; preds = %18
  %22 = call zeroext i1 @errstart(i32 noundef 21, ptr noundef null)
  br i1 %22, label %23, label %28

23:                                               ; preds = %21, %19
  %24 = call i32 @errcode(i32 noundef 151818372)
  %25 = load ptr, ptr %3, align 8
  %26 = call i32 (ptr, ...) @errmsg(ptr noundef @.str.27, ptr noundef %25)
  %27 = call i32 (ptr, ...) @errdetail(ptr noundef @.str.28, ptr noundef @.str.29, ptr noundef @.str.30)
  call void @errfinish(ptr noundef @.str.1, i32 noundef 1292, ptr noundef @__func__.pg_replication_origin_create)
  br label %28

28:                                               ; preds = %23, %21, %19
  unreachable

29:                                               ; No predecessors!
  br label %30

30:                                               ; preds = %29
  br label %31

31:                                               ; preds = %30, %14
  %32 = load ptr, ptr %3, align 8
  %33 = call zeroext i16 @replorigin_create(ptr noundef %32)
  store i16 %33, ptr %4, align 2
  %34 = load ptr, ptr %3, align 8
  call void @pfree(ptr noundef %34)
  %35 = load i16, ptr %4, align 2
  %36 = zext i16 %35 to i32
  %37 = call i64 @ObjectIdGetDatum(i32 noundef %36)
  call void @llvm.lifetime.end.p0(i64 2, ptr %4) #9
  call void @llvm.lifetime.end.p0(i64 8, ptr %3) #9
  ret i64 %37
}