; Function Attrs: nounwind uwtable
define dso_local range(i64 0, 65535) i64 @pg_replication_origin_create(ptr noundef readonly captures(none) %0) local_unnamed_addr #0 {
  %2 = tail call zeroext i1 @RecoveryInProgress() #10
  br i1 %2, label %3, label %replorigin_check_prerequisites.exit

3:                                                ; preds = %1
  %4 = tail call zeroext i1 @errstart_cold(i32 noundef 21, ptr noundef null) #11
  tail call void @llvm.assume(i1 %4)
  %5 = tail call i32 @errcode(i32 noundef 100663618) #10
  %6 = tail call i32 (ptr, ...) @errmsg(ptr noundef nonnull @.str.33) #10
  tail call void @errfinish(ptr noundef nonnull @.str.1, i32 noundef 199, ptr noundef nonnull @__func__.replorigin_check_prerequisites) #10
  unreachable

replorigin_check_prerequisites.exit:              ; preds = %1
  %7 = getelementptr inbounds nuw i8, ptr %0, i64 32
  %8 = load i64, ptr %7, align 8
  %9 = inttoptr i64 %8 to ptr
  %10 = tail call ptr @text_to_cstring(ptr noundef %9) #10
  %11 = tail call zeroext i1 @IsReservedName(ptr noundef %10) #10
  br i1 %11, label %IsReservedOriginName.exit.thread, label %12

12:                                               ; preds = %replorigin_check_prerequisites.exit
  %13 = tail call i32 @pg_strcasecmp(ptr noundef %10, ptr noundef nonnull @.str.30) #10
  %14 = icmp eq i32 %13, 0
  br i1 %14, label %IsReservedOriginName.exit.thread, label %IsReservedOriginName.exit

IsReservedOriginName.exit:                        ; preds = %12
  %15 = tail call i32 @pg_strcasecmp(ptr noundef %10, ptr noundef nonnull @.str.29) #10
  %16 = icmp eq i32 %15, 0
  br i1 %16, label %IsReservedOriginName.exit.thread, label %21

IsReservedOriginName.exit.thread:                 ; preds = %12, %IsReservedOriginName.exit, %replorigin_check_prerequisites.exit
  %17 = tail call zeroext i1 @errstart_cold(i32 noundef 21, ptr noundef null) #11
  tail call void @llvm.assume(i1 %17)
  %18 = tail call i32 @errcode(i32 noundef 151818372) #10
  %19 = tail call i32 (ptr, ...) @errmsg(ptr noundef nonnull @.str.27, ptr noundef %10) #10
  %20 = tail call i32 (ptr, ...) @errdetail(ptr noundef nonnull @.str.28, ptr noundef nonnull @.str.29, ptr noundef nonnull @.str.30) #10
  tail call void @errfinish(ptr noundef nonnull @.str.1, i32 noundef 1292, ptr noundef nonnull @__func__.pg_replication_origin_create) #10
  unreachable

21:                                               ; preds = %IsReservedOriginName.exit
  %22 = tail call zeroext i16 @replorigin_create(ptr noundef %10)
  tail call void @pfree(ptr noundef %10) #10
  %23 = zext i16 %22 to i64
  ret i64 %23
}